
./task:     file format elf32-i386


Disassembly of section .init:

08049000 <_init>:
 8049000:	f3 0f 1e fb          	endbr32
 8049004:	53                   	push   %ebx
 8049005:	83 ec 08             	sub    $0x8,%esp
 8049008:	e8 03 01 00 00       	call   8049110 <__x86.get_pc_thunk.bx>
 804900d:	81 c3 f3 2f 00 00    	add    $0x2ff3,%ebx
 8049013:	8b 83 f4 ff ff ff    	mov    -0xc(%ebx),%eax
 8049019:	85 c0                	test   %eax,%eax
 804901b:	74 02                	je     804901f <_init+0x1f>
 804901d:	ff d0                	call   *%eax
 804901f:	83 c4 08             	add    $0x8,%esp
 8049022:	5b                   	pop    %ebx
 8049023:	c3                   	ret

Disassembly of section .plt:

08049030 <__libc_start_main@plt-0x10>:
 8049030:	ff 35 04 c0 04 08    	push   0x804c004
 8049036:	ff 25 08 c0 04 08    	jmp    *0x804c008
 804903c:	00 00                	add    %al,(%eax)
	...

08049040 <__libc_start_main@plt>:
 8049040:	ff 25 0c c0 04 08    	jmp    *0x804c00c
 8049046:	68 00 00 00 00       	push   $0x0
 804904b:	e9 e0 ff ff ff       	jmp    8049030 <_init+0x30>

08049050 <read@plt>:
 8049050:	ff 25 10 c0 04 08    	jmp    *0x804c010
 8049056:	68 08 00 00 00       	push   $0x8
 804905b:	e9 d0 ff ff ff       	jmp    8049030 <_init+0x30>

08049060 <printf@plt>:
 8049060:	ff 25 14 c0 04 08    	jmp    *0x804c014
 8049066:	68 10 00 00 00       	push   $0x10
 804906b:	e9 c0 ff ff ff       	jmp    8049030 <_init+0x30>

08049070 <fgets@plt>:
 8049070:	ff 25 18 c0 04 08    	jmp    *0x804c018
 8049076:	68 18 00 00 00       	push   $0x18
 804907b:	e9 b0 ff ff ff       	jmp    8049030 <_init+0x30>

08049080 <fclose@plt>:
 8049080:	ff 25 1c c0 04 08    	jmp    *0x804c01c
 8049086:	68 20 00 00 00       	push   $0x20
 804908b:	e9 a0 ff ff ff       	jmp    8049030 <_init+0x30>

08049090 <puts@plt>:
 8049090:	ff 25 20 c0 04 08    	jmp    *0x804c020
 8049096:	68 28 00 00 00       	push   $0x28
 804909b:	e9 90 ff ff ff       	jmp    8049030 <_init+0x30>

080490a0 <setvbuf@plt>:
 80490a0:	ff 25 24 c0 04 08    	jmp    *0x804c024
 80490a6:	68 30 00 00 00       	push   $0x30
 80490ab:	e9 80 ff ff ff       	jmp    8049030 <_init+0x30>

080490b0 <fopen@plt>:
 80490b0:	ff 25 28 c0 04 08    	jmp    *0x804c028
 80490b6:	68 38 00 00 00       	push   $0x38
 80490bb:	e9 70 ff ff ff       	jmp    8049030 <_init+0x30>

Disassembly of section .text:

080490c0 <_start>:
 80490c0:	f3 0f 1e fb          	endbr32
 80490c4:	31 ed                	xor    %ebp,%ebp
 80490c6:	5e                   	pop    %esi
 80490c7:	89 e1                	mov    %esp,%ecx
 80490c9:	83 e4 f0             	and    $0xfffffff0,%esp
 80490cc:	50                   	push   %eax
 80490cd:	54                   	push   %esp
 80490ce:	52                   	push   %edx
 80490cf:	e8 19 00 00 00       	call   80490ed <_start+0x2d>
 80490d4:	81 c3 2c 2f 00 00    	add    $0x2f2c,%ebx
 80490da:	6a 00                	push   $0x0
 80490dc:	6a 00                	push   $0x0
 80490de:	51                   	push   %ecx
 80490df:	56                   	push   %esi
 80490e0:	c7 c0 fb 92 04 08    	mov    $0x80492fb,%eax
 80490e6:	50                   	push   %eax
 80490e7:	e8 54 ff ff ff       	call   8049040 <__libc_start_main@plt>
 80490ec:	f4                   	hlt
 80490ed:	8b 1c 24             	mov    (%esp),%ebx
 80490f0:	c3                   	ret
 80490f1:	66 90                	xchg   %ax,%ax
 80490f3:	66 90                	xchg   %ax,%ax
 80490f5:	66 90                	xchg   %ax,%ax
 80490f7:	66 90                	xchg   %ax,%ax
 80490f9:	66 90                	xchg   %ax,%ax
 80490fb:	66 90                	xchg   %ax,%ax
 80490fd:	66 90                	xchg   %ax,%ax
 80490ff:	90                   	nop

08049100 <_dl_relocate_static_pie>:
 8049100:	f3 0f 1e fb          	endbr32
 8049104:	c3                   	ret
 8049105:	66 90                	xchg   %ax,%ax
 8049107:	66 90                	xchg   %ax,%ax
 8049109:	66 90                	xchg   %ax,%ax
 804910b:	66 90                	xchg   %ax,%ax
 804910d:	66 90                	xchg   %ax,%ax
 804910f:	90                   	nop

08049110 <__x86.get_pc_thunk.bx>:
 8049110:	8b 1c 24             	mov    (%esp),%ebx
 8049113:	c3                   	ret
 8049114:	66 90                	xchg   %ax,%ax
 8049116:	66 90                	xchg   %ax,%ax
 8049118:	66 90                	xchg   %ax,%ax
 804911a:	66 90                	xchg   %ax,%ax
 804911c:	66 90                	xchg   %ax,%ax
 804911e:	66 90                	xchg   %ax,%ax

08049120 <deregister_tm_clones>:
 8049120:	b8 34 c0 04 08       	mov    $0x804c034,%eax
 8049125:	3d 34 c0 04 08       	cmp    $0x804c034,%eax
 804912a:	74 24                	je     8049150 <deregister_tm_clones+0x30>
 804912c:	b8 00 00 00 00       	mov    $0x0,%eax
 8049131:	85 c0                	test   %eax,%eax
 8049133:	74 1b                	je     8049150 <deregister_tm_clones+0x30>
 8049135:	55                   	push   %ebp
 8049136:	89 e5                	mov    %esp,%ebp
 8049138:	83 ec 14             	sub    $0x14,%esp
 804913b:	68 34 c0 04 08       	push   $0x804c034
 8049140:	ff d0                	call   *%eax
 8049142:	83 c4 10             	add    $0x10,%esp
 8049145:	c9                   	leave
 8049146:	c3                   	ret
 8049147:	8d b4 26 00 00 00 00 	lea    0x0(%esi,%eiz,1),%esi
 804914e:	66 90                	xchg   %ax,%ax
 8049150:	c3                   	ret
 8049151:	8d b4 26 00 00 00 00 	lea    0x0(%esi,%eiz,1),%esi
 8049158:	8d b4 26 00 00 00 00 	lea    0x0(%esi,%eiz,1),%esi
 804915f:	90                   	nop

08049160 <register_tm_clones>:
 8049160:	b8 34 c0 04 08       	mov    $0x804c034,%eax
 8049165:	2d 34 c0 04 08       	sub    $0x804c034,%eax
 804916a:	89 c2                	mov    %eax,%edx
 804916c:	c1 e8 1f             	shr    $0x1f,%eax
 804916f:	c1 fa 02             	sar    $0x2,%edx
 8049172:	01 d0                	add    %edx,%eax
 8049174:	d1 f8                	sar    $1,%eax
 8049176:	74 20                	je     8049198 <register_tm_clones+0x38>
 8049178:	ba 00 00 00 00       	mov    $0x0,%edx
 804917d:	85 d2                	test   %edx,%edx
 804917f:	74 17                	je     8049198 <register_tm_clones+0x38>
 8049181:	55                   	push   %ebp
 8049182:	89 e5                	mov    %esp,%ebp
 8049184:	83 ec 10             	sub    $0x10,%esp
 8049187:	50                   	push   %eax
 8049188:	68 34 c0 04 08       	push   $0x804c034
 804918d:	ff d2                	call   *%edx
 804918f:	83 c4 10             	add    $0x10,%esp
 8049192:	c9                   	leave
 8049193:	c3                   	ret
 8049194:	8d 74 26 00          	lea    0x0(%esi,%eiz,1),%esi
 8049198:	c3                   	ret
 8049199:	8d b4 26 00 00 00 00 	lea    0x0(%esi,%eiz,1),%esi

080491a0 <__do_global_dtors_aux>:
 80491a0:	f3 0f 1e fb          	endbr32
 80491a4:	80 3d 34 c0 04 08 00 	cmpb   $0x0,0x804c034
 80491ab:	75 1b                	jne    80491c8 <__do_global_dtors_aux+0x28>
 80491ad:	55                   	push   %ebp
 80491ae:	89 e5                	mov    %esp,%ebp
 80491b0:	83 ec 08             	sub    $0x8,%esp
 80491b3:	e8 68 ff ff ff       	call   8049120 <deregister_tm_clones>
 80491b8:	c6 05 34 c0 04 08 01 	movb   $0x1,0x804c034
 80491bf:	c9                   	leave
 80491c0:	c3                   	ret
 80491c1:	8d b4 26 00 00 00 00 	lea    0x0(%esi,%eiz,1),%esi
 80491c8:	c3                   	ret
 80491c9:	8d b4 26 00 00 00 00 	lea    0x0(%esi,%eiz,1),%esi

080491d0 <frame_dummy>:
 80491d0:	f3 0f 1e fb          	endbr32
 80491d4:	eb 8a                	jmp    8049160 <register_tm_clones>

080491d6 <print_flag>:
 80491d6:	55                   	push   %ebp
 80491d7:	89 e5                	mov    %esp,%ebp
 80491d9:	53                   	push   %ebx
 80491da:	83 ec 54             	sub    $0x54,%esp
 80491dd:	e8 2e ff ff ff       	call   8049110 <__x86.get_pc_thunk.bx>
 80491e2:	81 c3 1e 2e 00 00    	add    $0x2e1e,%ebx
 80491e8:	83 ec 0c             	sub    $0xc,%esp
 80491eb:	8d 83 08 e0 ff ff    	lea    -0x1ff8(%ebx),%eax
 80491f1:	50                   	push   %eax
 80491f2:	e8 99 fe ff ff       	call   8049090 <puts@plt>
 80491f7:	83 c4 10             	add    $0x10,%esp
 80491fa:	83 ec 08             	sub    $0x8,%esp
 80491fd:	ff 75 08             	push   0x8(%ebp)
 8049200:	8d 83 2c e0 ff ff    	lea    -0x1fd4(%ebx),%eax
 8049206:	50                   	push   %eax
 8049207:	e8 54 fe ff ff       	call   8049060 <printf@plt>
 804920c:	83 c4 10             	add    $0x10,%esp
 804920f:	83 ec 08             	sub    $0x8,%esp
 8049212:	ff 75 0c             	push   0xc(%ebp)
 8049215:	8d 83 35 e0 ff ff    	lea    -0x1fcb(%ebx),%eax
 804921b:	50                   	push   %eax
 804921c:	e8 3f fe ff ff       	call   8049060 <printf@plt>
 8049221:	83 c4 10             	add    $0x10,%esp
 8049224:	c7 45 f4 00 00 00 00 	movl   $0x0,-0xc(%ebp)
 804922b:	81 7d 08 c7 fa ff ff 	cmpl   $0xfffffac7,0x8(%ebp)
 8049232:	75 36                	jne    804926a <print_flag+0x94>
 8049234:	83 ec 08             	sub    $0x8,%esp
 8049237:	8d 83 40 e0 ff ff    	lea    -0x1fc0(%ebx),%eax
 804923d:	50                   	push   %eax
 804923e:	8d 83 43 e0 ff ff    	lea    -0x1fbd(%ebx),%eax
 8049244:	50                   	push   %eax
 8049245:	e8 66 fe ff ff       	call   80490b0 <fopen@plt>
 804924a:	83 c4 10             	add    $0x10,%esp
 804924d:	89 45 f4             	mov    %eax,-0xc(%ebp)
 8049250:	83 7d f4 00          	cmpl   $0x0,-0xc(%ebp)
 8049254:	75 14                	jne    804926a <print_flag+0x94>
 8049256:	83 ec 0c             	sub    $0xc,%esp
 8049259:	8d 83 50 e0 ff ff    	lea    -0x1fb0(%ebx),%eax
 804925f:	50                   	push   %eax
 8049260:	e8 2b fe ff ff       	call   8049090 <puts@plt>
 8049265:	83 c4 10             	add    $0x10,%esp
 8049268:	eb 40                	jmp    80492aa <print_flag+0xd4>
 804926a:	81 7d 0c ee ff c0 00 	cmpl   $0xc0ffee,0xc(%ebp)
 8049271:	75 23                	jne    8049296 <print_flag+0xc0>
 8049273:	83 ec 04             	sub    $0x4,%esp
 8049276:	ff 75 f4             	push   -0xc(%ebp)
 8049279:	6a 40                	push   $0x40
 804927b:	8d 45 b4             	lea    -0x4c(%ebp),%eax
 804927e:	50                   	push   %eax
 804927f:	e8 ec fd ff ff       	call   8049070 <fgets@plt>
 8049284:	83 c4 10             	add    $0x10,%esp
 8049287:	83 ec 0c             	sub    $0xc,%esp
 804928a:	8d 45 b4             	lea    -0x4c(%ebp),%eax
 804928d:	50                   	push   %eax
 804928e:	e8 fd fd ff ff       	call   8049090 <puts@plt>
 8049293:	83 c4 10             	add    $0x10,%esp
 8049296:	83 7d f4 00          	cmpl   $0x0,-0xc(%ebp)
 804929a:	74 0e                	je     80492aa <print_flag+0xd4>
 804929c:	83 ec 0c             	sub    $0xc,%esp
 804929f:	ff 75 f4             	push   -0xc(%ebp)
 80492a2:	e8 d9 fd ff ff       	call   8049080 <fclose@plt>
 80492a7:	83 c4 10             	add    $0x10,%esp
 80492aa:	8b 5d fc             	mov    -0x4(%ebp),%ebx
 80492ad:	c9                   	leave
 80492ae:	c3                   	ret

080492af <vuln>:
 80492af:	55                   	push   %ebp
 80492b0:	89 e5                	mov    %esp,%ebp
 80492b2:	53                   	push   %ebx
 80492b3:	83 ec 24             	sub    $0x24,%esp
 80492b6:	e8 55 fe ff ff       	call   8049110 <__x86.get_pc_thunk.bx>
 80492bb:	81 c3 45 2d 00 00    	add    $0x2d45,%ebx
 80492c1:	83 ec 0c             	sub    $0xc,%esp
 80492c4:	8d 83 7e e0 ff ff    	lea    -0x1f82(%ebx),%eax
 80492ca:	50                   	push   %eax
 80492cb:	e8 c0 fd ff ff       	call   8049090 <puts@plt>
 80492d0:	83 c4 10             	add    $0x10,%esp
 80492d3:	83 ec 04             	sub    $0x4,%esp
 80492d6:	6a 40                	push   $0x40
 80492d8:	8d 45 d8             	lea    -0x28(%ebp),%eax
 80492db:	50                   	push   %eax
 80492dc:	6a 00                	push   $0x0
 80492de:	e8 6d fd ff ff       	call   8049050 <read@plt>
 80492e3:	83 c4 10             	add    $0x10,%esp
 80492e6:	83 ec 08             	sub    $0x8,%esp
 80492e9:	6a 02                	push   $0x2
 80492eb:	6a ff                	push   $0xffffffff
 80492ed:	e8 e4 fe ff ff       	call   80491d6 <print_flag>
 80492f2:	83 c4 10             	add    $0x10,%esp
 80492f5:	90                   	nop
 80492f6:	8b 5d fc             	mov    -0x4(%ebp),%ebx
 80492f9:	c9                   	leave
 80492fa:	c3                   	ret

080492fb <main>:
 80492fb:	8d 4c 24 04          	lea    0x4(%esp),%ecx
 80492ff:	83 e4 f0             	and    $0xfffffff0,%esp
 8049302:	ff 71 fc             	push   -0x4(%ecx)
 8049305:	55                   	push   %ebp
 8049306:	89 e5                	mov    %esp,%ebp
 8049308:	53                   	push   %ebx
 8049309:	51                   	push   %ecx
 804930a:	e8 01 fe ff ff       	call   8049110 <__x86.get_pc_thunk.bx>
 804930f:	81 c3 f1 2c 00 00    	add    $0x2cf1,%ebx
 8049315:	8b 83 fc ff ff ff    	mov    -0x4(%ebx),%eax
 804931b:	8b 00                	mov    (%eax),%eax
 804931d:	6a 00                	push   $0x0
 804931f:	6a 02                	push   $0x2
 8049321:	6a 00                	push   $0x0
 8049323:	50                   	push   %eax
 8049324:	e8 77 fd ff ff       	call   80490a0 <setvbuf@plt>
 8049329:	83 c4 10             	add    $0x10,%esp
 804932c:	8b 83 f8 ff ff ff    	mov    -0x8(%ebx),%eax
 8049332:	8b 00                	mov    (%eax),%eax
 8049334:	6a 00                	push   $0x0
 8049336:	6a 02                	push   $0x2
 8049338:	6a 00                	push   $0x0
 804933a:	50                   	push   %eax
 804933b:	e8 60 fd ff ff       	call   80490a0 <setvbuf@plt>
 8049340:	83 c4 10             	add    $0x10,%esp
 8049343:	e8 67 ff ff ff       	call   80492af <vuln>
 8049348:	b8 00 00 00 00       	mov    $0x0,%eax
 804934d:	8d 65 f8             	lea    -0x8(%ebp),%esp
 8049350:	59                   	pop    %ecx
 8049351:	5b                   	pop    %ebx
 8049352:	5d                   	pop    %ebp
 8049353:	8d 61 fc             	lea    -0x4(%ecx),%esp
 8049356:	c3                   	ret

Disassembly of section .fini:

08049358 <_fini>:
 8049358:	f3 0f 1e fb          	endbr32
 804935c:	53                   	push   %ebx
 804935d:	83 ec 08             	sub    $0x8,%esp
 8049360:	e8 ab fd ff ff       	call   8049110 <__x86.get_pc_thunk.bx>
 8049365:	81 c3 9b 2c 00 00    	add    $0x2c9b,%ebx
 804936b:	83 c4 08             	add    $0x8,%esp
 804936e:	5b                   	pop    %ebx
 804936f:	c3                   	ret
